; Function Attrs: mustprogress nofree norecurse nosync nounwind willreturn memory(argmem: read) uwtable
define internal range(i32 -1, 1) i32 @_foreach_job_completed(ptr noundef readonly captures(none) %0, ptr readnone captures(none) %1) #6 {
  %3 = getelementptr inbounds nuw i8, ptr %0, i64 448
  %4 = load i32, ptr %3, align 8
  %5 = and i32 %4, 255
  %6 = icmp samesign ult i32 %5, 3
  %7 = and i32 %4, 32768
  %8 = icmp ne i32 %7, 0
  %or.cond.not = or i1 %6, %8
  %.0 = sext i1 %or.cond.not to i32
  ret i32 %.0
}